target datalayout = "e-m:e-p270:32:32-p271:32:32-p272:64:64-i64:64-i128:128-f80:128-n8:16:32:64-S128"
target triple = "x86_64-pc-linux-gnu"

@.str = private unnamed_addr constant [29 x i8] c"Argument not in valid range.\00", align 1
@_ZTIN7Iex_3_46ArgExcE = external constant ptr

; Function Attrs: inlinehint mustprogress nounwind uwtable
define linkonce_odr noundef nonnull align 4 dereferenceable(4) ptr @_ZSt3maxIiERKT_S2_S2_(ptr noundef nonnull align 4 dereferenceable(4) %0, ptr noundef nonnull align 4 dereferenceable(4) %1) #6 comdat {
  %3 = alloca ptr, align 8
  %4 = alloca ptr, align 8
  %5 = alloca ptr, align 8
  store ptr %0, ptr %4, align 8, !tbaa !9
  store ptr %1, ptr %5, align 8, !tbaa !9
  %6 = load ptr, ptr %4, align 8, !tbaa !9
  %7 = load i32, ptr %6, align 4, !tbaa !3
  %8 = load ptr, ptr %5, align 8, !tbaa !9
  %9 = load i32, ptr %8, align 4, !tbaa !3
  %10 = icmp slt i32 %7, %9
  br i1 %10, label %11, label %13

11:                                               ; preds = %2
  %12 = load ptr, ptr %5, align 8, !tbaa !9
  store ptr %12, ptr %3, align 8
  br label %15

13:                                               ; preds = %2
  %14 = load ptr, ptr %4, align 8, !tbaa !9
  store ptr %14, ptr %3, align 8
  br label %15

15:                                               ; preds = %13, %11
  %16 = load ptr, ptr %3, align 8
  ret ptr %16
}

; Function Attrs: mustprogress uwtable
define noundef i32 @_ZN7Imf_3_49levelSizeEiiiNS_17LevelRoundingModeE(i32 noundef %0, i32 noundef %1, i32 noundef %2, i32 noundef %3) #4 personality ptr @__gxx_personality_v0 {
  %5 = alloca i32, align 4
  %6 = alloca i32, align 4
  %7 = alloca i32, align 4
  %8 = alloca i32, align 4
  %9 = alloca ptr, align 8
  %10 = alloca i32, align 4
  %11 = alloca i32, align 4
  %12 = alloca i32, align 4
  %13 = alloca i32, align 4
  %14 = alloca i32, align 4
  store i32 %0, ptr %5, align 4, !tbaa !3
  store i32 %1, ptr %6, align 4, !tbaa !3
  store i32 %2, ptr %7, align 4, !tbaa !3
  store i32 %3, ptr %8, align 4, !tbaa !7
  %15 = load i32, ptr %7, align 4, !tbaa !3
  %16 = icmp slt i32 %15, 0
  br i1 %16, label %17, label %24

17:                                               ; preds = %4
  %18 = call ptr @__cxa_allocate_exception(i64 72) #3
  invoke void @_ZN7Iex_3_46ArgExcC1EPKc(ptr noundef nonnull align 8 dereferenceable(72) %18, ptr noundef @.str)
          to label %19 unwind label %20

19:                                               ; preds = %17
  call void @__cxa_throw(ptr %18, ptr @_ZTIN7Iex_3_46ArgExcE, ptr @_ZN7Iex_3_46ArgExcD1Ev) #14
  unreachable

20:                                               ; preds = %17
  %21 = landingpad { ptr, i32 }
          cleanup
  %22 = extractvalue { ptr, i32 } %21, 0
  store ptr %22, ptr %9, align 8
  %23 = extractvalue { ptr, i32 } %21, 1
  store i32 %23, ptr %10, align 4
  call void @__cxa_free_exception(ptr %18) #3
  br label %48

24:                                               ; preds = %4
  call void @llvm.lifetime.start.p0(i64 4, ptr %11) #3
  %25 = load i32, ptr %6, align 4, !tbaa !3
  %26 = load i32, ptr %5, align 4, !tbaa !3
  %27 = sub nsw i32 %25, %26
  %28 = add nsw i32 %27, 1
  store i32 %28, ptr %11, align 4, !tbaa !3
  call void @llvm.lifetime.start.p0(i64 4, ptr %12) #3
  %29 = load i32, ptr %7, align 4, !tbaa !3
  %30 = shl i32 1, %29
  store i32 %30, ptr %12, align 4, !tbaa !3
  call void @llvm.lifetime.start.p0(i64 4, ptr %13) #3
  %31 = load i32, ptr %11, align 4, !tbaa !3
  %32 = load i32, ptr %12, align 4, !tbaa !3
  %33 = sdiv i32 %31, %32
  store i32 %33, ptr %13, align 4, !tbaa !3
  %34 = load i32, ptr %8, align 4, !tbaa !7
  %35 = icmp eq i32 %34, 1
  br i1 %35, label %36, label %45

36:                                               ; preds = %24
  %37 = load i32, ptr %13, align 4, !tbaa !3
  %38 = load i32, ptr %12, align 4, !tbaa !3
  %39 = mul nsw i32 %37, %38
  %40 = load i32, ptr %11, align 4, !tbaa !3
  %41 = icmp slt i32 %39, %40
  br i1 %41, label %42, label %45

42:                                               ; preds = %36
  %43 = load i32, ptr %13, align 4, !tbaa !3
  %44 = add nsw i32 %43, 1
  store i32 %44, ptr %13, align 4, !tbaa !3
  br label %45

45:                                               ; preds = %42, %36, %24
  call void @llvm.lifetime.start.p0(i64 4, ptr %14) #3
  store i32 1, ptr %14, align 4, !tbaa !3
  %46 = call noundef nonnull align 4 dereferenceable(4) ptr @_ZSt3maxIiERKT_S2_S2_(ptr noundef nonnull align 4 dereferenceable(4) %13, ptr noundef nonnull align 4 dereferenceable(4) %14)
  %47 = load i32, ptr %46, align 4, !tbaa !3
  call void @llvm.lifetime.end.p0(i64 4, ptr %14) #3
  call void @llvm.lifetime.end.p0(i64 4, ptr %13) #3
  call void @llvm.lifetime.end.p0(i64 4, ptr %12) #3
  call void @llvm.lifetime.end.p0(i64 4, ptr %11) #3
  ret i32 %47

48:                                               ; preds = %20
  %49 = load ptr, ptr %9, align 8
  %50 = load i32, ptr %10, align 4
  %51 = insertvalue { ptr, i32 } poison, ptr %49, 0
  %52 = insertvalue { ptr, i32 } %51, i32 %50, 1
  resume { ptr, i32 } %52
}