; Function Attrs: mustprogress uwtable
define noundef range(i32 1, -2147483648) i32 @_ZN7Imf_3_49levelSizeEiiiNS_17LevelRoundingModeE(i32 noundef %0, i32 noundef %1, i32 noundef %2, i32 noundef %3) local_unnamed_addr #3 personality ptr @__gxx_personality_v0 {
  %5 = icmp slt i32 %2, 0
  br i1 %5, label %6, label %11

6:                                                ; preds = %4
  %7 = tail call ptr @__cxa_allocate_exception(i64 72) #13
  invoke void @_ZN7Iex_3_46ArgExcC1EPKc(ptr noundef nonnull align 8 dereferenceable(72) %7, ptr noundef nonnull @.str)
          to label %8 unwind label %9

8:                                                ; preds = %6
  tail call void @__cxa_throw(ptr nonnull %7, ptr nonnull @_ZTIN7Iex_3_46ArgExcE, ptr nonnull @_ZN7Iex_3_46ArgExcD1Ev) #14
  unreachable

9:                                                ; preds = %6
  %10 = landingpad { ptr, i32 }
          cleanup
  tail call void @__cxa_free_exception(ptr nonnull %7) #13
  resume { ptr, i32 } %10

11:                                               ; preds = %4
  %12 = sub nsw i32 %1, %0
  %13 = add nsw i32 %12, 1
  %14 = shl nuw i32 1, %2
  %15 = sdiv i32 %13, %14
  %16 = icmp eq i32 %3, 1
  %17 = shl i32 %15, %2
  %.not = icmp sle i32 %17, %12
  %or.cond.not = select i1 %16, i1 %.not, i1 false
  %18 = zext i1 %or.cond.not to i32
  %spec.select = add nsw i32 %15, %18
  %.sroa.speculated = tail call i32 @llvm.smax.i32(i32 %spec.select, i32 1)
  ret i32 %.sroa.speculated
}